target datalayout = "e-m:e-p270:32:32-p271:32:32-p272:64:64-i64:64-i128:128-f80:128-n8:16:32:64-S128"
target triple = "x86_64-pc-linux-gnu"

; Function Attrs: nounwind uwtable
define void @rgb48to64_nobswap(ptr noundef %0, ptr noundef %1, i32 noundef %2) #0 {
  %4 = alloca ptr, align 8
  %5 = alloca ptr, align 8
  %6 = alloca i32, align 4
  %7 = alloca ptr, align 8
  %8 = alloca ptr, align 8
  %9 = alloca i32, align 4
  %10 = alloca i32, align 4
  store ptr %0, ptr %4, align 8, !tbaa !4
  store ptr %1, ptr %5, align 8, !tbaa !4
  store i32 %2, ptr %6, align 4, !tbaa !9
  call void @llvm.lifetime.start.p0(i64 8, ptr %7) #5
  %11 = load ptr, ptr %5, align 8, !tbaa !4
  store ptr %11, ptr %7, align 8, !tbaa !20
  call void @llvm.lifetime.start.p0(i64 8, ptr %8) #5
  %12 = load ptr, ptr %4, align 8, !tbaa !4
  store ptr %12, ptr %8, align 8, !tbaa !20
  call void @llvm.lifetime.start.p0(i64 4, ptr %9) #5
  call void @llvm.lifetime.start.p0(i64 4, ptr %10) #5
  %13 = load i32, ptr %6, align 4, !tbaa !9
  %14 = sdiv i32 %13, 6
  store i32 %14, ptr %10, align 4, !tbaa !9
  store i32 0, ptr %9, align 4, !tbaa !9
  br label %15

15:                                               ; preds = %69, %3
  %16 = load i32, ptr %9, align 4, !tbaa !9
  %17 = load i32, ptr %10, align 4, !tbaa !9
  %18 = icmp slt i32 %16, %17
  br i1 %18, label %19, label %72

19:                                               ; preds = %15
  %20 = load ptr, ptr %8, align 8, !tbaa !20
  %21 = load i32, ptr %9, align 4, !tbaa !9
  %22 = mul nsw i32 3, %21
  %23 = sext i32 %22 to i64
  %24 = getelementptr inbounds i16, ptr %20, i64 %23
  %25 = load i16, ptr %24, align 2, !tbaa !22
  %26 = zext i16 %25 to i32
  %27 = trunc i32 %26 to i16
  %28 = load ptr, ptr %7, align 8, !tbaa !20
  %29 = load i32, ptr %9, align 4, !tbaa !9
  %30 = mul nsw i32 4, %29
  %31 = sext i32 %30 to i64
  %32 = getelementptr inbounds i16, ptr %28, i64 %31
  store i16 %27, ptr %32, align 2, !tbaa !22
  %33 = load ptr, ptr %8, align 8, !tbaa !20
  %34 = load i32, ptr %9, align 4, !tbaa !9
  %35 = mul nsw i32 3, %34
  %36 = add nsw i32 %35, 1
  %37 = sext i32 %36 to i64
  %38 = getelementptr inbounds i16, ptr %33, i64 %37
  %39 = load i16, ptr %38, align 2, !tbaa !22
  %40 = zext i16 %39 to i32
  %41 = trunc i32 %40 to i16
  %42 = load ptr, ptr %7, align 8, !tbaa !20
  %43 = load i32, ptr %9, align 4, !tbaa !9
  %44 = mul nsw i32 4, %43
  %45 = add nsw i32 %44, 1
  %46 = sext i32 %45 to i64
  %47 = getelementptr inbounds i16, ptr %42, i64 %46
  store i16 %41, ptr %47, align 2, !tbaa !22
  %48 = load ptr, ptr %8, align 8, !tbaa !20
  %49 = load i32, ptr %9, align 4, !tbaa !9
  %50 = mul nsw i32 3, %49
  %51 = add nsw i32 %50, 2
  %52 = sext i32 %51 to i64
  %53 = getelementptr inbounds i16, ptr %48, i64 %52
  %54 = load i16, ptr %53, align 2, !tbaa !22
  %55 = zext i16 %54 to i32
  %56 = trunc i32 %55 to i16
  %57 = load ptr, ptr %7, align 8, !tbaa !20
  %58 = load i32, ptr %9, align 4, !tbaa !9
  %59 = mul nsw i32 4, %58
  %60 = add nsw i32 %59, 2
  %61 = sext i32 %60 to i64
  %62 = getelementptr inbounds i16, ptr %57, i64 %61
  store i16 %56, ptr %62, align 2, !tbaa !22
  %63 = load ptr, ptr %7, align 8, !tbaa !20
  %64 = load i32, ptr %9, align 4, !tbaa !9
  %65 = mul nsw i32 4, %64
  %66 = add nsw i32 %65, 3
  %67 = sext i32 %66 to i64
  %68 = getelementptr inbounds i16, ptr %63, i64 %67
  store i16 -1, ptr %68, align 2, !tbaa !22
  br label %69

69:                                               ; preds = %19
  %70 = load i32, ptr %9, align 4, !tbaa !9
  %71 = add nsw i32 %70, 1
  store i32 %71, ptr %9, align 4, !tbaa !9
  br label %15, !llvm.loop !42

72:                                               ; preds = %15
  call void @llvm.lifetime.end.p0(i64 4, ptr %10) #5
  call void @llvm.lifetime.end.p0(i64 4, ptr %9) #5
  call void @llvm.lifetime.end.p0(i64 8, ptr %8) #5
  call void @llvm.lifetime.end.p0(i64 8, ptr %7) #5
  ret void
}